target datalayout = "e-m:e-p270:32:32-p271:32:32-p272:64:64-i64:64-i128:128-f80:128-n8:16:32:64-S128"
target triple = "x86_64-unknown-linux-gnu"

%"class.icu_75::Locale" = type <{ %"class.icu_75::UObject", [12 x i8], [6 x i8], [4 x i8], [2 x i8], i32, [4 x i8], ptr, [157 x i8], [3 x i8], ptr, i8, [7 x i8] }>
%"class.icu_75::UObject" = type { ptr }
%"class.icu_75::Locale::Iterator" = type { ptr }
%"class.(anonymous namespace)::LocaleFromTag" = type { %"class.icu_75::Locale" }
%"class.icu_75::Locale::ConvertingIterator" = type { %"class.icu_75::Locale::Iterator", ptr, ptr, %"class.(anonymous namespace)::LocaleFromTag" }

; Function Attrs: mustprogress nounwind uwtable
define internal noundef signext i8 @_ZNK6icu_756Locale18ConvertingIteratorIPPKcN12_GLOBAL__N_113LocaleFromTagEE7hasNextEv(ptr noundef nonnull align 8 dereferenceable(248) %this) unnamed_addr #0 align 2 {
entry:
  %this.addr = alloca ptr, align 8
  store ptr %this, ptr %this.addr, align 8
  %this1 = load ptr, ptr %this.addr, align 8
  %it_ = getelementptr inbounds %"class.icu_75::Locale::ConvertingIterator", ptr %this1, i32 0, i32 1
  %0 = load ptr, ptr %it_, align 8
  %end_ = getelementptr inbounds %"class.icu_75::Locale::ConvertingIterator", ptr %this1, i32 0, i32 2
  %1 = load ptr, ptr %end_, align 8
  %cmp = icmp ne ptr %0, %1
  %conv = zext i1 %cmp to i8
  ret i8 %conv
}