; Function Attrs: mustprogress nofree norecurse nosync nounwind willreturn memory(argmem: read) uwtable
define internal noundef signext i8 @_ZNK6icu_756Locale18ConvertingIteratorIPPKcN12_GLOBAL__N_113LocaleFromTagEE7hasNextEv(ptr nocapture noundef nonnull readonly align 8 dereferenceable(248) %this) unnamed_addr #9 align 2 {
entry:
  %it_ = getelementptr inbounds i8, ptr %this, i64 8
  %0 = load ptr, ptr %it_, align 8
  %end_ = getelementptr inbounds i8, ptr %this, i64 16
  %1 = load ptr, ptr %end_, align 8
  %cmp = icmp ne ptr %0, %1
  %conv = zext i1 %cmp to i8
  ret i8 %conv
}